(dp0
S'graph'
p1
ccopy_reg
_reconstructor
p2
(cnetworkx.classes.graph
Graph
p3
c__builtin__
object
p4
Ntp5
Rp6
(dp7
S'adjlist_inner_dict_factory'
p8
c__builtin__
dict
p9
sS'node_dict_factory'
p10
g9
sS'edge_attr_dict_factory'
p11
g9
sS'_node'
p12
(dp13
S'h8'
p14
(dp15
S'ip'
p16
S'10.0.8.1'
p17
ssS'h9'
p18
(dp19
g16
S'10.0.9.1'
p20
ssS'h2'
p21
(dp22
g16
S'10.0.2.1'
p23
ssS'h3'
p24
(dp25
g16
S'10.0.3.1'
p26
ssS'h0'
p27
(dp28
g16
S'10.0.0.1'
p29
ssS'h1'
p30
(dp31
g16
S'10.0.1.1'
p32
ssS'h6'
p33
(dp34
g16
S'10.0.6.1'
p35
ssS'h7'
p36
(dp37
g16
S'10.0.7.1'
p38
ssS'h4'
p39
(dp40
g16
S'10.0.4.1'
p41
ssS'h5'
p42
(dp43
g16
S'10.0.5.1'
p44
ssS's9'
p45
(dp46
sS's8'
p47
(dp48
sS's3'
p49
(dp50
sS's2'
p51
(dp52
sS's1'
p53
(dp54
sS's0'
p55
(dp56
sS's7'
p57
(dp58
sS's6'
p59
(dp60
sS's5'
p61
(dp62
sS's4'
p63
(dp64
sS's31'
p65
(dp66
sS's19'
p67
(dp68
sS's18'
p69
(dp70
sS's13'
p71
(dp72
sS's12'
p73
(dp74
sS's11'
p75
(dp76
sS's10'
p77
(dp78
sS's17'
p79
(dp80
sS's16'
p81
(dp82
sS's15'
p83
(dp84
sS's14'
p85
(dp86
sS'h18'
p87
(dp88
g16
S'10.0.18.1'
p89
ssS'h19'
p90
(dp91
g16
S'10.0.19.1'
p92
ssS's30'
p93
(dp94
sS'h10'
p95
(dp96
g16
S'10.0.10.1'
p97
ssS'h11'
p98
(dp99
g16
S'10.0.11.1'
p100
ssS'h12'
p101
(dp102
g16
S'10.0.12.1'
p103
ssS'h13'
p104
(dp105
g16
S'10.0.13.1'
p106
ssS'h14'
p107
(dp108
g16
S'10.0.14.1'
p109
ssS'h15'
p110
(dp111
g16
S'10.0.15.1'
p112
ssS'h16'
p113
(dp114
g16
S'10.0.16.1'
p115
ssS'h17'
p116
(dp117
g16
S'10.0.17.1'
p118
ssS's22'
p119
(dp120
sS's23'
p121
(dp122
sS's20'
p123
(dp124
sS's21'
p125
(dp126
sS's26'
p127
(dp128
sS's27'
p129
(dp130
sS's24'
p131
(dp132
sS's25'
p133
(dp134
sS's28'
p135
(dp136
sS's29'
p137
(dp138
ssg1
(dp139
sS'root_graph'
p140
g6
sS'_adj'
p141
(dp142
g14
(dp143
g47
(dp144
ssg18
(dp145
g45
(dp146
ssg21
(dp147
g51
(dp148
ssg24
(dp149
g49
(dp150
ssg27
(dp151
g55
(dp152
ssg30
(dp153
g53
(dp154
ssg33
(dp155
g59
(dp156
ssg36
(dp157
g57
(dp158
ssg39
(dp159
g63
(dp160
ssg42
(dp161
g61
(dp162
ssg45
(dp163
S'h9'
p164
g146
sS's12'
p165
(dp166
sS's17'
p167
(dp168
sS's14'
p169
(dp170
sS's20'
p171
(dp172
sS's24'
p173
(dp174
ssg47
(dp175
S'h8'
p176
g144
sS's13'
p177
(dp178
sS's2'
p179
(dp180
sS's1'
p181
(dp182
sS's0'
p183
(dp184
sS's22'
p185
(dp186
ssg49
(dp187
S'h3'
p188
g150
sS's22'
p189
(dp190
sS's20'
p191
(dp192
sS's21'
p193
(dp194
sS's24'
p195
(dp196
sS's25'
p197
(dp198
ssg51
(dp199
S's8'
p200
g180
sS's23'
p201
(dp202
sS'h2'
p203
g148
sS's17'
p204
(dp205
sS's22'
p206
(dp207
sS's13'
p208
(dp209
ssg53
(dp210
S's10'
p211
(dp212
sS'h1'
p213
g154
sS's5'
p214
(dp215
sS's14'
p216
(dp217
sS's23'
p218
(dp219
sS's8'
p220
g182
ssg55
(dp221
S's19'
p222
(dp223
sS's8'
p224
g184
sS's7'
p225
(dp226
sS'h0'
p227
g152
sS's31'
p228
(dp229
sS's23'
p230
(dp231
ssg57
(dp232
S's10'
p233
(dp234
sS's0'
p235
g226
sS'h7'
p236
g158
sS's22'
p237
(dp238
sS's21'
p239
(dp240
sS's24'
p241
(dp242
ssg59
(dp243
S's12'
p244
(dp245
sS'h6'
p246
g156
sS's16'
p247
(dp248
sS's15'
p249
(dp250
sS's23'
p251
(dp252
sS's29'
p253
(dp254
ssg61
(dp255
S's18'
p256
(dp257
sS's1'
p258
g215
sS's17'
p259
(dp260
sS'h5'
p261
g162
sS's26'
p262
(dp263
sS's29'
p264
(dp265
ssg63
(dp266
S's19'
p267
(dp268
sS's30'
p269
(dp270
sS's15'
p271
(dp272
sS'h4'
p273
g160
sS's25'
p274
(dp275
sS's29'
p276
(dp277
ssg65
(dp278
S's0'
p279
g229
sS's20'
p280
(dp281
sS's21'
p282
(dp283
sS's26'
p284
(dp285
sS's27'
p286
(dp287
sS's28'
p288
(dp289
ssg67
(dp290
S'h19'
p291
(dp292
sS's0'
p293
g223
sS's4'
p294
g268
sS's21'
p295
(dp296
sS's24'
p297
(dp298
sS's28'
p299
(dp300
ssg69
(dp301
S'h18'
p302
(dp303
sS's11'
p304
(dp305
sS's16'
p306
(dp307
sS's5'
p308
g257
sS's14'
p309
(dp310
sS's26'
p311
(dp312
ssg71
(dp313
S's8'
p314
g178
sS's10'
p315
(dp316
sS's2'
p317
g209
sS's11'
p318
(dp319
sS'h13'
p320
(dp321
sS's28'
p322
(dp323
ssg73
(dp324
S's9'
p325
g166
sS'h12'
p326
(dp327
sS's6'
p328
g245
sS's26'
p329
(dp330
sS's27'
p331
(dp332
sS's28'
p333
(dp334
ssg75
(dp335
S's18'
p336
g305
sS's13'
p337
g319
sS'h11'
p338
(dp339
sS's17'
p340
(dp341
sS's30'
p342
(dp343
sS's22'
p344
(dp345
ssg77
(dp346
S'h10'
p347
(dp348
sS's1'
p349
g212
sS's7'
p350
g234
sS's13'
p351
g316
sS's26'
p352
(dp353
sS's27'
p354
(dp355
ssg79
(dp356
S's9'
p357
g168
sS's2'
p358
g205
sS's11'
p359
g341
sS's5'
p360
g260
sS'h17'
p361
(dp362
sS's29'
p363
(dp364
ssg81
(dp365
S's18'
p366
g307
sS's6'
p367
g248
sS'h16'
p368
(dp369
sS's20'
p370
(dp371
sS's27'
p372
(dp373
sS's29'
p374
(dp375
ssg83
(dp376
S's30'
p377
(dp378
sS's6'
p379
g250
sS'h15'
p380
(dp381
sS's23'
p382
(dp383
sS's27'
p384
(dp385
sS's4'
p386
g272
ssg85
(dp387
S's9'
p388
g170
sS's18'
p389
g310
sS's1'
p390
g217
sS'h14'
p391
(dp392
sS's21'
p393
(dp394
sS's27'
p395
(dp396
ssg87
(dp397
g69
g303
ssg90
(dp398
g67
g292
ssg93
(dp399
S's11'
p400
g343
sS's15'
p401
g378
sS's4'
p402
g270
sS's23'
p403
(dp404
sS's20'
p405
(dp406
sS's28'
p407
(dp408
ssg95
(dp409
g77
g348
ssg98
(dp410
g75
g339
ssg101
(dp411
g73
g327
ssg104
(dp412
g71
g321
ssg107
(dp413
g85
g392
ssg110
(dp414
g83
g381
ssg113
(dp415
g81
g369
ssg116
(dp416
g79
g362
ssg119
(dp417
S's8'
p418
g186
sS's3'
p419
g190
sS's2'
p420
g207
sS's11'
p421
g345
sS's7'
p422
g238
sS's25'
p423
(dp424
ssg121
(dp425
S's2'
p426
g202
sS's1'
p427
g219
sS's0'
p428
g231
sS's6'
p429
g252
sS's15'
p430
g383
sS's30'
p431
g404
ssg123
(dp432
S's9'
p433
g172
sS's3'
p434
g192
sS's31'
p435
g281
sS's16'
p436
g371
sS's30'
p437
g406
sS's24'
p438
(dp439
ssg125
(dp440
S's19'
p441
g296
sS's3'
p442
g194
sS's31'
p443
g283
sS's7'
p444
g240
sS's14'
p445
g394
sS's26'
p446
(dp447
ssg127
(dp448
S's18'
p449
g312
sS's12'
p450
g330
sS's10'
p451
g353
sS's31'
p452
g285
sS's5'
p453
g263
sS's21'
p454
g447
ssg129
(dp455
S's12'
p456
g332
sS's10'
p457
g355
sS's31'
p458
g287
sS's16'
p459
g373
sS's15'
p460
g385
sS's14'
p461
g396
ssg131
(dp462
S's19'
p463
g298
sS's3'
p464
g196
sS's7'
p465
g242
sS's9'
p466
g174
sS's20'
p467
g439
sS's25'
p468
(dp469
ssg133
(dp470
S's3'
p471
g198
sS's4'
p472
g275
sS's22'
p473
g424
sS's24'
p474
g469
sS's28'
p475
(dp476
sS's29'
p477
(dp478
ssg135
(dp479
S's19'
p480
g300
sS's13'
p481
g323
sS's12'
p482
g334
sS's31'
p483
g289
sS's30'
p484
g408
sS's25'
p485
g476
ssg137
(dp486
S's17'
p487
g364
sS's16'
p488
g375
sS's5'
p489
g265
sS's4'
p490
g277
sS's25'
p491
g478
sS's6'
p492
g254
sssS'adjlist_outer_dict_factory'
p493
g9
sbsS'n_ports'
p494
I6
sS'n_hosts'
p495
I20
sS'outport_mappings'
p496
(dp497
(S'h14'
p498
g85
tp499
I1
s(S's5'
p500
S's1'
p501
tp502
I5
s(S's15'
p503
S's27'
p504
tp505
I3
s(S'h13'
p506
g71
tp507
I1
s(S's29'
p508
S's4'
p509
tp510
I2
s(S's31'
p511
S's21'
p512
tp513
I6
s(S's13'
p514
S's2'
p515
tp516
I2
s(S's2'
p517
S's22'
p518
tp519
I3
s(S's8'
p520
S's2'
p521
tp522
I3
s(g53
S'h1'
p523
tp524
I6
s(S's17'
p525
S's5'
p526
tp527
I4
s(S's24'
p528
S's7'
p529
tp530
I6
s(S's22'
p531
S's8'
p532
tp533
I5
s(S's11'
p534
S's17'
p535
tp536
I3
s(S'h16'
p537
g81
tp538
I1
s(S's28'
p539
S's19'
p540
tp541
I4
s(S's22'
p542
S's2'
p543
tp544
I2
s(S'h4'
p545
g63
tp546
I1
s(S's18'
p547
S's5'
p548
tp549
I3
s(S's21'
p550
S's3'
p551
tp552
I3
s(S'h7'
p553
g57
tp554
I1
s(S's25'
p555
S's22'
p556
tp557
I5
s(S's20'
p558
S's9'
p559
tp560
I4
s(S's6'
p561
S's15'
p562
tp563
I3
s(S's18'
p564
S's26'
p565
tp566
I1
s(S's11'
p567
S's30'
p568
tp569
I5
s(S's5'
p570
S's17'
p571
tp572
I2
s(S's22'
p573
S's25'
p574
tp575
I4
s(S's26'
p576
S's21'
p577
tp578
I5
s(S's5'
p579
S's18'
p580
tp581
I3
s(S's23'
p582
S's6'
p583
tp584
I2
s(S's21'
p585
S's26'
p586
tp587
I4
s(S's28'
p588
S's31'
p589
tp590
I3
s(g75
S'h11'
p591
tp592
I6
s(S's4'
p593
S's15'
p594
tp595
I5
s(S's31'
p596
S's27'
p597
tp598
I4
s(S's12'
p599
S's26'
p600
tp601
I2
s(S's10'
p602
S's7'
p603
tp604
I2
s(S's0'
p605
S's8'
p606
tp607
I2
s(S's30'
p608
S's15'
p609
tp610
I4
s(S's9'
p611
S's24'
p612
tp613
I5
s(S's14'
p614
S's21'
p615
tp616
I2
s(S's2'
p617
S's13'
p618
tp619
I4
s(S's10'
p620
S's1'
p621
tp622
I5
s(S's27'
p623
S's14'
p624
tp625
I5
s(S's14'
p626
S's9'
p627
tp628
I1
s(S's9'
p629
S's20'
p630
tp631
I3
s(g77
S'h10'
p632
tp633
I6
s(S's11'
p634
S's22'
p635
tp636
I4
s(S's13'
p637
S's8'
p638
tp639
I5
s(S's29'
p640
S's25'
p641
tp642
I1
s(S's21'
p643
S's31'
p644
tp645
I6
s(S's25'
p646
S's28'
p647
tp648
I3
s(S's19'
p649
S's4'
p650
tp651
I1
s(S's20'
p652
S's3'
p653
tp654
I6
s(S's7'
p655
S's24'
p656
tp657
I5
s(S's11'
p658
S's13'
p659
tp660
I2
s(S's0'
p661
S's23'
p662
tp663
I5
s(S'h0'
p664
g55
tp665
I1
s(S's29'
p666
S's5'
p667
tp668
I6
s(S's11'
p669
S's18'
p670
tp671
I1
s(S's26'
p672
S's31'
p673
tp674
I3
s(S's23'
p675
S's0'
p676
tp677
I5
s(S's30'
p678
S's28'
p679
tp680
I5
s(S's13'
p681
S's11'
p682
tp683
I4
s(S'h2'
p684
g51
tp685
I1
s(S's21'
p686
S's14'
p687
tp688
I5
s(S's24'
p689
S's20'
p690
tp691
I2
s(S's21'
p692
S's7'
p693
tp694
I2
s(S's3'
p695
S's20'
p696
tp697
I5
s(S's8'
p698
S's22'
p699
tp700
I5
s(S's23'
p701
S's15'
p702
tp703
I3
s(S'h19'
p704
g67
tp705
I1
s(S'h1'
p706
g53
tp707
I1
s(S's2'
p708
S's8'
p709
tp710
I5
s(S's4'
p711
S's19'
p712
tp713
I3
s(S'h6'
p714
g59
tp715
I1
s(S's23'
p716
S's30'
p717
tp718
I1
s(S's14'
p719
S's27'
p720
tp721
I5
s(S's25'
p722
S's3'
p723
tp724
I6
s(S's29'
p725
S's6'
p726
tp727
I4
s(S's8'
p728
S's13'
p729
tp730
I1
s(S's26'
p731
S's12'
p732
tp733
I2
s(S's20'
p734
S's30'
p735
tp736
I1
s(S's4'
p737
S's25'
p738
tp739
I2
s(g47
S'h8'
p740
tp741
I6
s(S's6'
p742
S's16'
p743
tp744
I2
s(g69
S'h18'
p745
tp746
I6
s(S's0'
p747
S's19'
p748
tp749
I3
s(S's28'
p750
S's12'
p751
tp752
I6
s(S's29'
p753
S's16'
p754
tp755
I5
s(g73
S'h12'
p756
tp757
I6
s(S's1'
p758
S's5'
p759
tp760
I5
s(g61
S'h5'
p761
tp762
I6
s(S's25'
p763
S's4'
p764
tp765
I1
s(S's10'
p766
S's27'
p767
tp768
I4
s(S's28'
p769
S's30'
p770
tp771
I5
s(S'h3'
p772
g49
tp773
I1
s(g85
S'h14'
p774
tp775
I6
s(S's18'
p776
S's14'
p777
tp778
I4
s(S's19'
p779
S's21'
p780
tp781
I2
s(S's30'
p782
S's23'
p783
tp784
I2
s(S's9'
p785
S's12'
p786
tp787
I2
s(S's17'
p788
S's9'
p789
tp790
I1
s(g81
S'h16'
p791
tp792
I6
s(S's25'
p793
S's24'
p794
tp795
I4
s(S's19'
p796
S's0'
p797
tp798
I4
s(S's16'
p799
S's20'
p800
tp801
I2
s(S's15'
p802
S's6'
p803
tp804
I4
s(S's1'
p805
S's8'
p806
tp807
I3
s(S's26'
p808
S's5'
p809
tp810
I4
s(S's27'
p811
S's15'
p812
tp813
I3
s(S'h9'
p814
g45
tp815
I1
s(S's26'
p816
S's18'
p817
tp818
I1
s(S's27'
p819
S's12'
p820
tp821
I2
s(S's3'
p822
S's24'
p823
tp824
I1
s(S's18'
p825
S's11'
p826
tp827
I2
s(g49
S'h3'
p828
tp829
I6
s(S's30'
p830
S's4'
p831
tp832
I3
s(S'h8'
p833
g47
tp834
I1
s(S's2'
p835
S's17'
p836
tp837
I1
s(S's7'
p838
S's10'
p839
tp840
I3
s(S's31'
p841
S's28'
p842
tp843
I2
s(S's17'
p844
S's11'
p845
tp846
I5
s(S'h5'
p847
g61
tp848
I1
s(S's16'
p849
S's27'
p850
tp851
I1
s(S'h17'
p852
g79
tp853
I1
s(g55
S'h0'
p854
tp855
I6
s(S's24'
p856
S's19'
p857
tp858
I5
s(S's20'
p859
S's31'
p860
tp861
I5
s(S's1'
p862
S's23'
p863
tp864
I4
s(S's23'
p865
S's1'
p866
tp867
I6
s(S's14'
p868
S's18'
p869
tp870
I3
s(S's13'
p871
S's10'
p872
tp873
I3
s(S's8'
p874
S's0'
p875
tp876
I2
s(S's3'
p877
S's21'
p878
tp879
I2
s(S's9'
p880
S's14'
p881
tp882
I4
s(S's6'
p883
S's12'
p884
tp885
I5
s(S's0'
p886
S's7'
p887
tp888
I4
s(S'h18'
p889
g69
tp890
I1
s(S's23'
p891
S's2'
p892
tp893
I4
s(S's20'
p894
S's16'
p895
tp896
I2
s(S's24'
p897
S's9'
p898
tp899
I4
s(S's1'
p900
S's10'
p901
tp902
I2
s(S's16'
p903
S's6'
p904
tp905
I3
s(S's10'
p906
S's13'
p907
tp908
I1
s(g71
S'h13'
p909
tp910
I6
s(S's22'
p911
S's3'
p912
tp913
I3
s(S's14'
p914
S's1'
p915
tp916
I4
s(S'h11'
p917
g75
tp918
I1
s(S's31'
p919
S's20'
p920
tp921
I5
s(S's2'
p922
S's23'
p923
tp924
I2
s(S's30'
p925
S's20'
p926
tp927
I1
s(S's3'
p928
S's22'
p929
tp930
I3
s(S'h10'
p931
g77
tp932
I1
s(S's19'
p933
S's28'
p934
tp935
I3
s(S's4'
p936
S's29'
p937
tp938
I4
s(g79
S'h17'
p939
tp940
I6
s(S's24'
p941
S's25'
p942
tp943
I3
s(S's13'
p944
S's28'
p945
tp946
I1
s(S'h15'
p947
g83
tp948
I1
s(S's26'
p949
S's10'
p950
tp951
I6
s(S's29'
p952
S's17'
p953
tp954
I3
s(S's15'
p955
S's30'
p956
tp957
I2
s(S's16'
p958
S's29'
p959
tp960
I4
s(S's20'
p961
S's24'
p962
tp963
I3
s(S's10'
p964
S's26'
p965
tp966
I3
s(g67
S'h19'
p967
tp968
I6
s(S's22'
p969
S's11'
p970
tp971
I6
s(S's12'
p972
S's28'
p973
tp974
I5
s(S's1'
p975
S's14'
p976
tp977
I1
s(S's16'
p978
S's18'
p979
tp980
I5
s(g51
S'h2'
p981
tp982
I6
s(S's28'
p983
S's25'
p984
tp985
I2
s(S's7'
p986
S's21'
p987
tp988
I2
s(S's6'
p989
S's29'
p990
tp991
I4
s(S's5'
p992
S's29'
p993
tp994
I4
s(g57
S'h7'
p995
tp996
I6
s(S's24'
p997
S's3'
p998
tp999
I1
s(S's31'
p1000
S's0'
p1001
tp1002
I3
s(S's15'
p1003
S's4'
p1004
tp1005
I5
s(S's0'
p1006
S's31'
p1007
tp1008
I1
s(S's27'
p1009
S's16'
p1010
tp1011
I1
s(S's12'
p1012
S's6'
p1013
tp1014
I4
s(g59
S'h6'
p1015
tp1016
I6
s(S's31'
p1017
S's26'
p1018
tp1019
I1
s(S's3'
p1020
S's25'
p1021
tp1022
I4
s(S's18'
p1023
S's16'
p1024
tp1025
I5
s(S's12'
p1026
S's9'
p1027
tp1028
I3
s(S's12'
p1029
S's27'
p1030
tp1031
I1
s(S's27'
p1032
S's10'
p1033
tp1034
I4
s(S's6'
p1035
S's23'
p1036
tp1037
I1
s(S's7'
p1038
S's0'
p1039
tp1040
I4
s(S's7'
p1041
S's22'
p1042
tp1043
I1
s(S's5'
p1044
S's26'
p1045
tp1046
I1
s(S's27'
p1047
S's31'
p1048
tp1049
I6
s(S's30'
p1050
S's11'
p1051
tp1052
I6
s(g63
S'h4'
p1053
tp1054
I6
s(S'h12'
p1055
g73
tp1056
I1
s(S's22'
p1057
S's7'
p1058
tp1059
I1
s(S's15'
p1060
S's23'
p1061
tp1062
I1
s(S's4'
p1063
S's30'
p1064
tp1065
I1
s(S's17'
p1066
S's29'
p1067
tp1068
I3
s(S's28'
p1069
S's13'
p1070
tp1071
I1
s(S's8'
p1072
S's1'
p1073
tp1074
I4
s(g83
S'h15'
p1075
tp1076
I6
s(S's21'
p1077
S's19'
p1078
tp1079
I1
s(S's19'
p1080
S's24'
p1081
tp1082
I5
s(g45
S'h9'
p1083
tp1084
I6
s(S's9'
p1085
S's17'
p1086
tp1087
I1
s(S's25'
p1088
S's29'
p1089
tp1090
I2
s(S's17'
p1091
S's2'
p1092
tp1093
I2
ssS'n_switches'
p1094
I32
s.