(dp0
S'graph'
p1
ccopy_reg
_reconstructor
p2
(cnetworkx.classes.graph
Graph
p3
c__builtin__
object
p4
Ntp5
Rp6
(dp7
S'adjlist_inner_dict_factory'
p8
c__builtin__
dict
p9
sS'node_dict_factory'
p10
g9
sS'edge_attr_dict_factory'
p11
g9
sS'_node'
p12
(dp13
S'h8'
p14
(dp15
S'ip'
p16
S'10.0.8.1'
p17
ssS'h9'
p18
(dp19
g16
S'10.0.9.1'
p20
ssS'h2'
p21
(dp22
g16
S'10.0.2.1'
p23
ssS'h3'
p24
(dp25
g16
S'10.0.3.1'
p26
ssS'h0'
p27
(dp28
g16
S'10.0.0.1'
p29
ssS'h1'
p30
(dp31
g16
S'10.0.1.1'
p32
ssS'h6'
p33
(dp34
g16
S'10.0.6.1'
p35
ssS'h7'
p36
(dp37
g16
S'10.0.7.1'
p38
ssS'h4'
p39
(dp40
g16
S'10.0.4.1'
p41
ssS'h5'
p42
(dp43
g16
S'10.0.5.1'
p44
ssS's9'
p45
(dp46
sS's8'
p47
(dp48
sS's3'
p49
(dp50
sS's2'
p51
(dp52
sS's1'
p53
(dp54
sS's0'
p55
(dp56
sS's7'
p57
(dp58
sS's6'
p59
(dp60
sS's5'
p61
(dp62
sS's4'
p63
(dp64
sS'h10'
p65
(dp66
g16
S'10.0.10.1'
p67
ssS'h11'
p68
(dp69
g16
S'10.0.11.1'
p70
ssS'h12'
p71
(dp72
g16
S'10.0.12.1'
p73
ssS'h13'
p74
(dp75
g16
S'10.0.13.1'
p76
ssS'h14'
p77
(dp78
g16
S'10.0.14.1'
p79
sssg1
(dp80
sS'root_graph'
p81
g6
sS'_adj'
p82
(dp83
g14
(dp84
g47
(dp85
ssg18
(dp86
g45
(dp87
ssg21
(dp88
g51
(dp89
ssg24
(dp90
g49
(dp91
ssg27
(dp92
g55
(dp93
ssg30
(dp94
g53
(dp95
ssg33
(dp96
g59
(dp97
ssg36
(dp98
g57
(dp99
ssg39
(dp100
g63
(dp101
ssg42
(dp102
g61
(dp103
ssg45
(dp104
S'h9'
p105
g87
sS's0'
p106
(dp107
sS's8'
p108
(dp109
sS's4'
p110
(dp111
ssg47
(dp112
S's2'
p113
(dp114
sS'h8'
p115
g85
sS's9'
p116
g109
sS's1'
p117
(dp118
ssg49
(dp119
S'h3'
p120
g91
sS'h13'
p121
(dp122
sS's6'
p123
(dp124
sS's4'
p125
(dp126
ssg51
(dp127
S'h2'
p128
g89
sS'h12'
p129
(dp130
sS's8'
p131
g114
sS's5'
p132
(dp133
ssg53
(dp134
S'h11'
p135
(dp136
sS'h1'
p137
g95
sS's8'
p138
g118
sS's6'
p139
(dp140
ssg55
(dp141
S'h10'
p142
(dp143
sS'h0'
p144
g93
sS's7'
p145
(dp146
sS's9'
p147
g107
ssg57
(dp148
S's0'
p149
g146
sS'h7'
p150
g99
sS's5'
p151
(dp152
sS's6'
p153
(dp154
ssg59
(dp155
S's3'
p156
g124
sS's7'
p157
g154
sS's1'
p158
g140
sS'h6'
p159
g97
ssg61
(dp160
S's2'
p161
g133
sS's7'
p162
g152
sS'h5'
p163
g103
ssg63
(dp164
S's3'
p165
g126
sS's9'
p166
g111
sS'h14'
p167
(dp168
sS'h4'
p169
g101
ssg65
(dp170
g55
g143
ssg68
(dp171
g53
g136
ssg71
(dp172
g51
g130
ssg74
(dp173
g49
g122
ssg77
(dp174
g63
g168
sssS'adjlist_outer_dict_factory'
p175
g9
sbsS'n_ports'
p176
I4
sS'n_hosts'
p177
I15
sS'n_switches'
p178
I10
s.