(dp0
S'graph'
p1
ccopy_reg
_reconstructor
p2
(cnetworkx.classes.graph
Graph
p3
c__builtin__
object
p4
Ntp5
Rp6
(dp7
S'adjlist_inner_dict_factory'
p8
c__builtin__
dict
p9
sS'node_dict_factory'
p10
g9
sS'edge_attr_dict_factory'
p11
g9
sS'_node'
p12
(dp13
S'h8'
p14
(dp15
S'ip'
p16
S'10.0.8.1'
p17
ssS'h9'
p18
(dp19
g16
S'10.0.9.1'
p20
ssS'h2'
p21
(dp22
g16
S'10.0.2.1'
p23
ssS'h3'
p24
(dp25
g16
S'10.0.3.1'
p26
ssS'h0'
p27
(dp28
g16
S'10.0.0.1'
p29
ssS'h1'
p30
(dp31
g16
S'10.0.1.1'
p32
ssS'h6'
p33
(dp34
g16
S'10.0.6.1'
p35
ssS'h7'
p36
(dp37
g16
S'10.0.7.1'
p38
ssS'h4'
p39
(dp40
g16
S'10.0.4.1'
p41
ssS'h5'
p42
(dp43
g16
S'10.0.5.1'
p44
ssS's9'
p45
(dp46
sS's8'
p47
(dp48
sS's3'
p49
(dp50
sS's2'
p51
(dp52
sS's1'
p53
(dp54
sS's0'
p55
(dp56
sS's7'
p57
(dp58
sS's6'
p59
(dp60
sS's5'
p61
(dp62
sS's4'
p63
(dp64
sS's13'
p65
(dp66
sS's12'
p67
(dp68
sS's11'
p69
(dp70
sS's10'
p71
(dp72
sS's14'
p73
(dp74
sS'h10'
p75
(dp76
g16
S'10.0.10.1'
p77
ssS'h11'
p78
(dp79
g16
S'10.0.11.1'
p80
sssg1
(dp81
sS'root_graph'
p82
g6
sS'_adj'
p83
(dp84
g14
(dp85
g47
(dp86
ssg18
(dp87
g45
(dp88
ssg21
(dp89
g51
(dp90
ssg24
(dp91
g49
(dp92
ssg27
(dp93
g55
(dp94
ssg30
(dp95
g53
(dp96
ssg33
(dp97
g59
(dp98
ssg36
(dp99
g57
(dp100
ssg39
(dp101
g63
(dp102
ssg42
(dp103
g61
(dp104
ssg45
(dp105
S's13'
p106
(dp107
sS's1'
p108
(dp109
sS'h9'
p110
g88
sS's5'
p111
(dp112
ssg47
(dp113
S'h8'
p114
g86
sS's0'
p115
(dp116
sS's7'
p117
(dp118
sS's4'
p119
(dp120
ssg49
(dp121
S's13'
p122
(dp123
sS'h3'
p124
g92
sS's1'
p125
(dp126
sS's2'
p127
(dp128
ssg51
(dp129
S'h2'
p130
g90
sS's3'
p131
g128
sS's11'
p132
(dp133
sS's14'
p134
(dp135
ssg53
(dp136
S's3'
p137
g126
sS's9'
p138
g109
sS'h1'
p139
g96
sS's10'
p140
(dp141
ssg55
(dp142
S's13'
p143
(dp144
sS'h0'
p145
g94
sS's8'
p146
g116
sS's11'
p147
(dp148
ssg57
(dp149
S's8'
p150
g118
sS'h7'
p151
g100
sS's14'
p152
(dp153
sS's4'
p154
(dp155
ssg59
(dp156
S's13'
p157
(dp158
sS'h6'
p159
g98
sS's5'
p160
(dp161
sS's14'
p162
(dp163
ssg61
(dp164
S's9'
p165
g112
sS's10'
p166
(dp167
sS's6'
p168
g161
sS'h5'
p169
g104
ssg63
(dp170
S's12'
p171
(dp172
sS's8'
p173
g120
sS's7'
p174
g155
sS'h4'
p175
g102
ssg65
(dp176
S's3'
p177
g123
sS's9'
p178
g107
sS's0'
p179
g144
sS's6'
p180
g158
ssg67
(dp181
S's11'
p182
(dp183
sS's14'
p184
(dp185
sS's10'
p186
(dp187
sS's4'
p188
g172
ssg69
(dp189
S's2'
p190
g133
sS'h11'
p191
(dp192
sS's0'
p193
g148
sS's12'
p194
g183
ssg71
(dp195
S'h10'
p196
(dp197
sS's12'
p198
g187
sS's1'
p199
g141
sS's5'
p200
g167
ssg73
(dp201
S's12'
p202
g185
sS's7'
p203
g153
sS's6'
p204
g163
sS's2'
p205
g135
ssg75
(dp206
g71
g197
ssg78
(dp207
g69
g192
sssS'adjlist_outer_dict_factory'
p208
g9
sbsS'n_ports'
p209
I4
sS'n_hosts'
p210
I12
sS'outport_mappings'
p211
(dp212
(S's5'
p213
S's10'
p214
tp215
I1
s(S's0'
p216
S's11'
p217
tp218
I2
s(S's6'
p219
S's14'
p220
tp221
I1
s(S's10'
p222
S's1'
p223
tp224
I1
s(S's12'
p225
S's4'
p226
tp227
I4
s(g71
S'h10'
p228
tp229
I4
s(S's4'
p230
S's8'
p231
tp232
I1
s(S's2'
p233
S's3'
p234
tp235
I1
s(g55
S'h0'
p236
tp237
I4
s(S's9'
p238
S's1'
p239
tp240
I1
s(S's3'
p241
S's2'
p242
tp243
I1
s(S'h7'
p244
g57
tp245
I1
s(S's14'
p246
S's2'
p247
tp248
I2
s(S's9'
p249
S's5'
p250
tp251
I3
s(S's11'
p252
S's2'
p253
tp254
I1
s(S's0'
p255
S's8'
p256
tp257
I1
s(S'h2'
p258
g51
tp259
I1
s(S'h9'
p260
g45
tp261
I1
s(S's5'
p262
S's9'
p263
tp264
I2
s(g53
S'h1'
p265
tp266
I4
s(S's13'
p267
S's9'
p268
tp269
I1
s(S's7'
p270
S's14'
p271
tp272
I1
s(S's12'
p273
S's14'
p274
tp275
I3
s(g51
S'h2'
p276
tp277
I4
s(S's2'
p278
S's14'
p279
tp280
I2
s(S's3'
p281
S's1'
p282
tp283
I2
s(g49
S'h3'
p284
tp285
I4
s(g57
S'h7'
p286
tp287
I4
s(S's9'
p288
S's13'
p289
tp290
I2
s(S's12'
p291
S's10'
p292
tp293
I1
s(S'h4'
p294
g63
tp295
I1
s(S's2'
p296
S's11'
p297
tp298
I3
s(g61
S'h5'
p299
tp300
I4
s(S'h5'
p301
g61
tp302
I1
s(S's1'
p303
S's10'
p304
tp305
I1
s(S's11'
p306
S's12'
p307
tp308
I2
s(S's14'
p309
S's7'
p310
tp311
I3
s(S's8'
p312
S's4'
p313
tp314
I3
s(g59
S'h6'
p315
tp316
I4
s(S's10'
p317
S's12'
p318
tp319
I3
s(S's8'
p320
S's7'
p321
tp322
I2
s(S's10'
p323
S's5'
p324
tp325
I2
s(S's1'
p326
S's3'
p327
tp328
I2
s(S'h6'
p329
g59
tp330
I1
s(S's14'
p331
S's12'
p332
tp333
I4
s(S's7'
p334
S's4'
p335
tp336
I3
s(S's5'
p337
S's6'
p338
tp339
I3
s(S's8'
p340
S's0'
p341
tp342
I1
s(S's12'
p343
S's11'
p344
tp345
I2
s(S's13'
p346
S's3'
p347
tp348
I2
s(S's4'
p349
S's12'
p350
tp351
I3
s(S'h0'
p352
g55
tp353
I1
s(g69
S'h11'
p354
tp355
I4
s(S's4'
p356
S's7'
p357
tp358
I2
s(S's14'
p359
S's6'
p360
tp361
I1
s(g47
S'h8'
p362
tp363
I4
s(S's13'
p364
S's6'
p365
tp366
I4
s(S'h1'
p367
g53
tp368
I1
s(S's11'
p369
S's0'
p370
tp371
I3
s(S'h10'
p372
g71
tp373
I1
s(S's13'
p374
S's0'
p375
tp376
I3
s(S'h11'
p377
g69
tp378
I1
s(S's6'
p379
S's5'
p380
tp381
I2
s(S's3'
p382
S's13'
p383
tp384
I3
s(g45
S'h9'
p385
tp386
I4
s(S's7'
p387
S's8'
p388
tp389
I2
s(S's6'
p390
S's13'
p391
tp392
I3
s(S'h8'
p393
g47
tp394
I1
s(g63
S'h4'
p395
tp396
I4
s(S's0'
p397
S's13'
p398
tp399
I3
s(S'h3'
p400
g49
tp401
I1
s(S's1'
p402
S's9'
p403
tp404
I3
ssS'n_switches'
p405
I15
s.